; ModuleID = '22/225.c'
source_filename = "22/225.c"
target datalayout = "e-m:e-p270:32:32-p271:32:32-p272:64:64-i64:64-f80:128-n8:16:32:64-S128"
target triple = "x86_64-pc-linux-gnu"

@.str = private unnamed_addr constant [3 x i8] c"%d\00", align 1
@.str.1 = private unnamed_addr constant [4 x i8] c"No\0A\00", align 1
@.str.2 = private unnamed_addr constant [4 x i8] c"%d\0A\00", align 1

; Function Attrs: noinline nounwind uwtable
define dso_local void @main() #0 {
  %1 = alloca [300 x i32], align 16
  %2 = alloca i32, align 4
  %3 = alloca i32, align 4
  %4 = alloca i32, align 4
  %5 = alloca i32, align 4
  %6 = alloca i32, align 4
  %7 = alloca i8, align 1
  %8 = bitcast [300 x i32]* %1 to i8*
  call void @llvm.memset.p0i8.i64(i8* align 16 %8, i8 0, i64 1200, i1 false)
  store i32 0, i32* %3, align 4
  store i32 0, i32* %6, align 4
  store i32 0, i32* %2, align 4
  br label %9

9:                                                ; preds = %20, %0
  %10 = load i32, i32* %2, align 4
  %11 = sext i32 %10 to i64
  %12 = getelementptr inbounds [300 x i32], [300 x i32]* %1, i64 0, i64 %11
  %13 = call i32 (i8*, ...) @__isoc99_scanf(i8* getelementptr inbounds ([3 x i8], [3 x i8]* @.str, i64 0, i64 0), i32* %12)
  %14 = call i32 @getchar()
  %15 = trunc i32 %14 to i8
  store i8 %15, i8* %7, align 1
  %16 = sext i8 %15 to i32
  %17 = icmp eq i32 %16, 10
  br i1 %17, label %18, label %19

18:                                               ; preds = %9
  br label %23

19:                                               ; preds = %9
  br label %20

20:                                               ; preds = %19
  %21 = load i32, i32* %2, align 4
  %22 = add nsw i32 %21, 1
  store i32 %22, i32* %2, align 4
  br label %9

23:                                               ; preds = %18
  %24 = load i32, i32* %2, align 4
  store i32 %24, i32* %4, align 4
  %25 = load i32, i32* %4, align 4
  %26 = icmp eq i32 %25, 0
  br i1 %26, label %27, label %29

27:                                               ; preds = %23
  %28 = call i32 (i8*, ...) @printf(i8* getelementptr inbounds ([4 x i8], [4 x i8]* @.str.1, i64 0, i64 0))
  br label %134

29:                                               ; preds = %23
  store i32 1, i32* %2, align 4
  br label %30

30:                                               ; preds = %44, %29
  %31 = load i32, i32* %2, align 4
  %32 = load i32, i32* %4, align 4
  %33 = icmp sle i32 %31, %32
  br i1 %33, label %34, label %47

34:                                               ; preds = %30
  %35 = getelementptr inbounds [300 x i32], [300 x i32]* %1, i64 0, i64 0
  %36 = load i32, i32* %35, align 16
  %37 = load i32, i32* %2, align 4
  %38 = sext i32 %37 to i64
  %39 = getelementptr inbounds [300 x i32], [300 x i32]* %1, i64 0, i64 %38
  %40 = load i32, i32* %39, align 4
  %41 = icmp ne i32 %36, %40
  br i1 %41, label %42, label %43

42:                                               ; preds = %34
  store i32 1, i32* %6, align 4
  br label %43

43:                                               ; preds = %42, %34
  br label %44

44:                                               ; preds = %43
  %45 = load i32, i32* %2, align 4
  %46 = add nsw i32 %45, 1
  store i32 %46, i32* %2, align 4
  br label %30

47:                                               ; preds = %30
  %48 = load i32, i32* %6, align 4
  %49 = icmp eq i32 %48, 0
  br i1 %49, label %50, label %52

50:                                               ; preds = %47
  %51 = call i32 (i8*, ...) @printf(i8* getelementptr inbounds ([4 x i8], [4 x i8]* @.str.1, i64 0, i64 0))
  br label %133

52:                                               ; preds = %47
  store i32 0, i32* %2, align 4
  br label %53

53:                                               ; preds = %71, %52
  %54 = load i32, i32* %2, align 4
  %55 = load i32, i32* %4, align 4
  %56 = icmp sle i32 %54, %55
  br i1 %56, label %57, label %74

57:                                               ; preds = %53
  %58 = load i32, i32* %3, align 4
  %59 = load i32, i32* %2, align 4
  %60 = sext i32 %59 to i64
  %61 = getelementptr inbounds [300 x i32], [300 x i32]* %1, i64 0, i64 %60
  %62 = load i32, i32* %61, align 4
  %63 = icmp slt i32 %58, %62
  br i1 %63, label %64, label %70

64:                                               ; preds = %57
  %65 = load i32, i32* %2, align 4
  %66 = sext i32 %65 to i64
  %67 = getelementptr inbounds [300 x i32], [300 x i32]* %1, i64 0, i64 %66
  %68 = load i32, i32* %67, align 4
  store i32 %68, i32* %3, align 4
  %69 = load i32, i32* %2, align 4
  store i32 %69, i32* %5, align 4
  br label %70

70:                                               ; preds = %64, %57
  br label %71

71:                                               ; preds = %70
  %72 = load i32, i32* %2, align 4
  %73 = add nsw i32 %72, 1
  store i32 %73, i32* %2, align 4
  br label %53

74:                                               ; preds = %53
  store i32 0, i32* %2, align 4
  br label %75

75:                                               ; preds = %99, %74
  %76 = load i32, i32* %2, align 4
  %77 = load i32, i32* %4, align 4
  %78 = icmp sle i32 %76, %77
  br i1 %78, label %79, label %102

79:                                               ; preds = %75
  %80 = load i32, i32* %2, align 4
  %81 = load i32, i32* %5, align 4
  %82 = icmp ne i32 %80, %81
  br i1 %82, label %83, label %98

83:                                               ; preds = %79
  %84 = load i32, i32* %5, align 4
  %85 = sext i32 %84 to i64
  %86 = getelementptr inbounds [300 x i32], [300 x i32]* %1, i64 0, i64 %85
  %87 = load i32, i32* %86, align 4
  %88 = load i32, i32* %2, align 4
  %89 = sext i32 %88 to i64
  %90 = getelementptr inbounds [300 x i32], [300 x i32]* %1, i64 0, i64 %89
  %91 = load i32, i32* %90, align 4
  %92 = icmp eq i32 %87, %91
  br i1 %92, label %93, label %97

93:                                               ; preds = %83
  %94 = load i32, i32* %2, align 4
  %95 = sext i32 %94 to i64
  %96 = getelementptr inbounds [300 x i32], [300 x i32]* %1, i64 0, i64 %95
  store i32 0, i32* %96, align 4
  br label %97

97:                                               ; preds = %93, %83
  br label %98

98:                                               ; preds = %97, %79
  br label %99

99:                                               ; preds = %98
  %100 = load i32, i32* %2, align 4
  %101 = add nsw i32 %100, 1
  store i32 %101, i32* %2, align 4
  br label %75

102:                                              ; preds = %75
  %103 = load i32, i32* %5, align 4
  %104 = sext i32 %103 to i64
  %105 = getelementptr inbounds [300 x i32], [300 x i32]* %1, i64 0, i64 %104
  store i32 0, i32* %105, align 4
  store i32 0, i32* %3, align 4
  store i32 0, i32* %2, align 4
  br label %106

106:                                              ; preds = %124, %102
  %107 = load i32, i32* %2, align 4
  %108 = load i32, i32* %4, align 4
  %109 = icmp sle i32 %107, %108
  br i1 %109, label %110, label %127

110:                                              ; preds = %106
  %111 = load i32, i32* %3, align 4
  %112 = load i32, i32* %2, align 4
  %113 = sext i32 %112 to i64
  %114 = getelementptr inbounds [300 x i32], [300 x i32]* %1, i64 0, i64 %113
  %115 = load i32, i32* %114, align 4
  %116 = icmp slt i32 %111, %115
  br i1 %116, label %117, label %123

117:                                              ; preds = %110
  %118 = load i32, i32* %2, align 4
  %119 = sext i32 %118 to i64
  %120 = getelementptr inbounds [300 x i32], [300 x i32]* %1, i64 0, i64 %119
  %121 = load i32, i32* %120, align 4
  store i32 %121, i32* %3, align 4
  %122 = load i32, i32* %2, align 4
  store i32 %122, i32* %5, align 4
  br label %123

123:                                              ; preds = %117, %110
  br label %124

124:                                              ; preds = %123
  %125 = load i32, i32* %2, align 4
  %126 = add nsw i32 %125, 1
  store i32 %126, i32* %2, align 4
  br label %106

127:                                              ; preds = %106
  %128 = load i32, i32* %5, align 4
  %129 = sext i32 %128 to i64
  %130 = getelementptr inbounds [300 x i32], [300 x i32]* %1, i64 0, i64 %129
  %131 = load i32, i32* %130, align 4
  %132 = call i32 (i8*, ...) @printf(i8* getelementptr inbounds ([4 x i8], [4 x i8]* @.str.2, i64 0, i64 0), i32 %131)
  br label %133

133:                                              ; preds = %127, %50
  br label %134

134:                                              ; preds = %133, %27
  ret void
}

; Function Attrs: argmemonly nounwind willreturn
declare void @llvm.memset.p0i8.i64(i8* nocapture writeonly, i8, i64, i1 immarg) #1

declare dso_local i32 @__isoc99_scanf(i8*, ...) #2

declare dso_local i32 @getchar() #2

declare dso_local i32 @printf(i8*, ...) #2


!llvm.module.flags = !{!0}
!llvm.ident = !{!1}

!0 = !{i32 1, !"wchar_size", i32 4}
!1 = !{!"clang version 10.0.0-4ubuntu1 "}
